(dp1
S'output'
p2
S"<type 'exceptions.AttributeError'> 'int' object has no attribute 'json'"
p3
sS'layer'
p4
S'/home/web2py/applications/appsms/controllers/default.py'
p5
sS'code'
p6
S'# -*- coding: utf-8 -*-\n# this file is released under public domain and you can use without limitations\n\n#########################################################################\n## This is a sample controller\n## - index is the default action of any application\n## - user is required for authentication and authorization\n## - download is for downloading files uploaded in the db (does streaming)\n#########################################################################\n@auth.requires_login()\ndef index():\n    """\n    example action using the internationalization operator T and flash\n    rendered by views/default/index.html or views/generic.html\n\n    if you need a simple wiki simply replace the two lines below with:\n    return auth.wiki()\n    """\n    #response.flash = T("Hello World")\n    #return dict(message=T(\'Welcome to web2py!\'))\n    redirect (URL(\'canales\'),client_side=True)\n\n@auth.requires_login()\ndef canales():\n\n    \n    query=(db.canales)\n    db.canales.status.represent = lambda id,row: estado[id]\n    fields=[db.canales.numero,db.canales.cantidad,db.canales.credito,db.canales.queue,db.canales.status]\n        #headers = {\'db.pagos.fecha\':   \'Fecha\',\n        #   \'db.pagos.monto\': \'Valor\',\'db.pagos.comments\':\'Observaciones\'}\n    orderby=(db.canales.queue)\n    links=[lambda row: A(IMG(_src=URL(r=request,c=\'static\',f=\'images/green_dollar.png\'), _width=16, _height=16), \n        _href=URL(\'update_saldo\', args=[row.id,row.queue])),\n            lambda row: A(IMG(_src=URL(r=request,c=\'static\',f=\'images/icon-recarga.png\'), _width=16, _height=16), \n        _href=URL(\'recarga\', args=[row.queue]))]\n    #links = [lambda row: A(\'View Post\',_href=URL("default","update_saldo",args=[row.id,row.queue]))]\n    form = SQLFORM.grid(query=query, fields=fields, orderby=orderby, csv=False, create=True, links=links, \n                         deletable=True , editable=True, details=False,paginate=15,maxtextlength=50, user_signature=False)\n    form[\'_style\']=\'border:1px solid black\'\n\n    #customized = myformat(form.rows)\n    #form.element(\'.web2py_table\', replace=customized)\n\n    #query=db(db.canales).select(db.canales.ALL, orderby=db.canales.queue)\n    #print query\n    #orm=SQLFORM.grid(query=query)\n\n    return dict(form=form)\n\n@auth.requires_login()\ndef update_saldo():\n\n    r=request.args[0]\n    q=request.args[1]\n\n    #cl=db(db.auth_user.id == recors).select(db.auth_user.saldo,db.auth_user.first_name,db.auth_user.last_name)[0]\n\n    form = SQLFORM.factory(Field(\'monto\',\'integer\', label="Monto",requires=IS_INT_IN_RANGE(1000,100000),default=(1600)),formstyle=\'bootstrap\')\n\n\n    submit = form.element(_type="submit")\n    submit["_onclick"] = "return confirm(\'Confirma Recarga Saldo\');"\n    form[\'_style\']=\'border:1px solid black\'\n\n    #submit["_onclick"] = "return confirm(\'Confirma o Cancela Datos Cliente\');"\n    if form.accepts(request.vars,session):\n\n                db(db.canales.id==r).update(credito=db.canales.credito+int(form.vars.monto))\n                db.commit()\n                #cadena=\'/usr/local/bin/send_my_sms %s 103 250SMS\' % (q,)\n                #os.system(cadena)\n                session.flash = T(\'Recarga Exitosa!!!\')\n                redirect(URL(\'canales\'))\n\n    return dict(form=form)\n\n\n\n\n@auth.requires_login()\ndef recarga():\n\n    r=request.args[0]\n    #q=request.args[1]\n\n    #cl=db(db.auth_user.id == recors).select(db.auth_user.saldo,db.auth_user.first_name,db.auth_user.last_name)[0]\n\n    form = SQLFORM.factory(Field(\'monto\',\'integer\', default=1600, label="Recarga Bolsa 80 SMS"),formstyle=\'bootstrap\')\n\n\n    submit = form.element(_type="submit")\n    submit["_onclick"] = "return confirm(\'Confirma Recarga\');"\n    form[\'_style\']=\'border:1px solid black\'\n\n    #submit["_onclick"] = "return confirm(\'Confirma o Cancela Datos Cliente\');"\n    if form.accepts(request.vars,session):\n\n                #db(db.canales.id==r).update(credito=db.canales.credito+int(form.vars.monto))\n                #db.commit()\n                try:\n                    cadena="echo vmo123 | sudo -S /usr/local/bin/send_my_sms %s 103 80SMS" % (q,)\n                    #cadena=\'echo vmo123 | sudo -S /usr/local/bin/send_my_sms %s 103 80SMS\' % (q,)\n                    os.system(cadena)\n                    session.flash = T(\'Recarga Exitosa!!!\')\n                    redirect(URL(\'canales\'))\n                except:\n                    session.flash = T(\'Fallo APP Recarga !!!!!!!!!!\')\n                    redirect(URL(\'canales\'))\n\n    return dict(form=form)\n\n@auth.requires_login()\ndef recibidos():\n\n    query=(db.sms_log.type==\'RECEIVED\')\n    fields=[db.sms_log.id,db.sms_log.type,db.sms_log.sent,db.sms_log.received,db.sms_log.sender,db.sms_log.receiver,db.sms_log.text]\n    orderby=(~db.sms_log.id)\n    form = SQLFORM.grid(query=query, fields=fields, orderby=orderby,\n                        create=False, deletable=False, editable=False,details=False,paginate=15,maxtextlength=50,)\n\n    return dict(form=form)\n\n\n\n\n\n@auth.requires_login()\ndef log():\n\n    query=(db.sms_log)\n\n    fields=[db.sms_log.type,db.sms_log.sent,db.sms_log.received,db.sms_log.sender,db.sms_log.receiver,db.sms_log.text,db.sms_log.status,db.sms_log.id_outgoing]\n    orderby=(~db.sms_log.sent)\n    #links=[lambda row: A(IMG(_src=URL(r=request,c=\'static\',f=\'images/Edit_Icon.png\'), _width=16, _height=16), _href=URL(\'edit_device\', args=row.id)),lambda row: A(IMG(_src=URL(r=request,c=\'static\',f=\'images/followme.png\'), _width=24, _height=24), _href=URL(\'add_follow\', args=row.id))]\n    #links = [lambda row: A(\'View Post\',_href=URL("default","update_saldo",args=[row.id,row.queue]))]\n    form = SQLFORM.grid(query=query, fields=fields, orderby=orderby, csv=True, create=False, formstyle=\'bootstrap\',\n                         deletable=False , editable=False, details=False,paginate=50,maxtextlength=50, user_signature=False)\n        #form[\'_style\']=\'border:1px solid black\'\n    #customized = myformat(form.rows)\n    #form.element(\'.web2py_table\', replace=customized)\n\n\n    return dict(form=form)\n\n@auth.requires_login()\ndef outgoing():\n\n    query=(db.outgoing)\n\n    fields=[db.outgoing.customer_id,db.outgoing.number,db.outgoing.sms_text,db.outgoing.checked,db.outgoing.created_at]\n    orderby=(~db.outgoing.created_at)\n    #links=[lambda row: A(IMG(_src=URL(r=request,c=\'static\',f=\'images/Edit_Icon.png\'), _width=16, _height=16), _href=URL(\'edit_device\', args=row.id)),lambda row: A(IMG(_src=URL(r=request,c=\'static\',f=\'images/followme.png\'), _width=24, _height=24), _href=URL(\'add_follow\', args=row.id))]\n    #links = [lambda row: A(\'View Post\',_href=URL("default","update_saldo",args=[row.id,row.queue]))]\n    form = SQLFORM.grid(query=query, fields=fields, orderby=orderby, csv=True, create=False, formstyle=\'table3cols\',\n                         deletable=False , editable=False, details=False,paginate=100,maxtextlength=50, user_signature=False)\n        #form[\'_style\']=\'border:1px solid black\'\n\n\n    return dict(form=form)\n\n\ndef user():\n    """\n    exposes:\n    http://..../[app]/default/user/login\n    http://..../[app]/default/user/logout\n    http://..../[app]/default/user/register\n    http://..../[app]/default/user/profile\n    http://..../[app]/default/user/retrieve_password\n    http://..../[app]/default/user/change_password\n    http://..../[app]/default/user/manage_users (requires membership in\n    use @auth.requires_login()\n        @auth.requires_membership(\'group name\')\n        @auth.requires_permission(\'read\',\'table name\',record_id)\n    to decorate functions that need access control\n    """\n    return dict(form=auth())\n\n\n@cache.action()\ndef download():\n    """\n    allows downloading of uploaded files\n    http://..../[app]/default/download/[filename]\n    """\n    return response.download(request, db)\n\n\ndef call():\n    """\n    exposes services. for example:\n    http://..../[app]/default/call/jsonrpc\n    decorate with @services.jsonrpc the functions to expose\n    supports xml, json, xmlrpc, jsonrpc, amfrpc, rss, csv\n    """\n    return service()\n\ndef myformat(rows):\n    #import gluon\n    #nuevo = gluon.dal.Rows()\n\n    new = TABLE()\n\n    for i in rows:\n        if i.received:\n\n            row = TR(TD(i.sent ), TD(i.type),TD(i.received),TD(i.sender),TD(i.receiver),TD(i.text),TD(i.status),TD(i.id_outgoing), _class=\'green\')\n        #elif i.account.startswith(\'B\'):\n        #    row = TR(TD(i.account), TD(i.concept), _class=\'orange\')\n        else:\n            row = TR(TD(i.sent), TD(i.type),TD(i.received),TD(i.sender),TD(i.receiver),TD(i.text),TD(i.status),TD(i.id_outgoing), _class=\'red\')\n        new.append(row)\n    return new\n\n\n\n@auth.requires_login()\ndef dispositivos():\n\n        import os,re\n        #Variable para la ruta al directorio\n        path = \'/dev/\'\n        #Lista vacia para incluir los ficheros\n        lstFiles = []\n        #Lista con todos los ficheros del directorio:\n        lstDir = os.walk(path)   #os.walk()Lista directorios y ficheros\n        #Crea una lista de los ficheros jpg que existen en el directorio y los incluye a la lista.\n        codigos = [\'BUS1-HUB1-PORT1\',\'BUS1-HUB1-PORT2\',\'BUS1-HUB1-PORT3\',\'BUS1-HUB1-PORT4\',\'BUS1-HUB1-PORT5\',\'BUS1-HUB1-PORT6\',\'BUS1-HUB1-PORT7\']\n        for root, dirs, files in lstDir:\n            for fichero in files:\n                (nombreFichero, extension) = os.path.splitext(fichero)\n                for elemento in codigos:\n                    #if re.match(nombreFichero, \'BUS1-HUB1-PORT.\'):\n                    if re.match(nombreFichero, elemento):\n                        lstFiles.append(nombreFichero)#+extension)\n        lstFiles.sort()\n        #return dict(files=TABLE(*[TR(TD(f)) for f in lstFiles]),total=len(lstFiles))\n        return dict(files=lstFiles,total=len(lstFiles))\n\n@auth.requires_login()\ndef colas():\n\n        import os\n\n        queue= db().select(db.canales.queue, orderby=db.canales.queue)\n        colas=[]\n        for i in queue:\n\n\n                try:\n                    files=os.listdir(\'/var/spool/sms/%s/\' % i.queue)\n                    colas.append(files)\n                except:\n                    files=[]\n                    colas.append(files)\n\n\n\n        return dict(queue=queue,colas=colas)\n\n\n@auth.requires_login()\ndef reload():\n\n    p=None\n    form = SQLFORM.factory(Field(\'Reload\',default=\'Reload SMS Tools\',writable=False))\n    submit = form.element(\'input\',_type=\'submit\')\n    #submit[\'_style\'] = \'display:none;\'\n    #submit["_onclick"] = "return confirm(\'Confirma Recarga Saldo\');"\n    #form[\'_style\']=\'border:1px solid black\'\n\n    #submit["_onclick"] = "return confirm(\'Confirma Reload SMS Tools\');"\n    if form.accepts(request.vars,session):\n        import os\n        #import subprocess\n        #p = subprocess.Popen(\'/usr/bin/sudo -S /etc/init.d/sms3 restart\', shell=True,stdin=subprocess.PIPE, stdout=subprocess.PIPE, stderr=subprocess.PIPE)\n        #out, err = p.communicate(input=\'vmo123\')\n                         #    print "\\n".join("out: " + x for x in out.split(\'\\n\'))\n                         #    print "\\n".join("err: " + x for x in err.split(\'\\n\'))\n\n        #p=os.popen("/usr/bin/sudo -S /etc/init.d/sms3 restart", \'w\').write("vmo123\\n")\n        p=os.system("echo -e \'%s\'|/usr/bin/sudo -S %s" % (\'vmo123\\n\', \'/etc/init.d/sms3 restart\'))\n        if not p:\n            response.flash = T(\'Reload SMS Tools Exitoso!!!\')\n        #p=os.system(\'echo -e vmo123 | sudo -u fvillarroel -S /etc/init.d/sms3 stop\')\n    return dict(form=form,p=p)\n\n@request.restful()\ndef api():\n    response.view = \'generic.json\'\n\n    def GET(tablename, id):\n        if not tablename == \'person\':\n            raise HTTP(400)\n        return dict(person = db.person(id))\n\n    def POST(*args, **vars):\n\n        print "hola"\n        #bin_sendsms=\'/usr/local/bin/send_my_sms\'\n        #ext = request.form["text"]\n        number = request.vars.number\n        return number.json \n        #username = request.form["username"]\n        #password = request.form["password"]\n        #id_sms = request.form["id"]\n        #if username != \'fenvillarroel\' or password !=\'abc123jU\':\n            #app.logger.debug(\'login error send\')\n        #    return True\n\n        #canal = db.executesql(\'select * canales where status=1 and cantidad>0 order by random() limit 1\')\n\n        #if not canal:\n        #    raise HTTP(500)\n\n        #db.executesql(\'update canales set cantidad=cantidad -1 where canal=%s\' % (canal,))\n        #db.commit()\n\n        #channel=canal.queue\n        #cmd = "%s %s %s \\"%s\\"" %  (bin_sendsms, channel, number, text)\n        #execute = os.popen(cmd).read()\n        #app.logger.debug(execute)\n        #sms_id = execute.split(\'\\n\')[0]\n\n        #if not tablename == \'person\':\n        #    raise HTTP(400)\n        #return number.json\n\n    return locals() \n\n\nresponse._vars=response._caller(api)\n'
p7
sS'snapshot'
p8
(dp9
S'exception'
p10
(dp11
S'__hash__'
p12
S"<method-wrapper '__hash__' of exceptions.AttributeError object>"
p13
sS'__setattr__'
p14
S"<method-wrapper '__setattr__' of exceptions.AttributeError object>"
p15
sS'__reduce_ex__'
p16
S'<built-in method __reduce_ex__ of exceptions.AttributeError object>'
p17
sS'__getslice__'
p18
S"<method-wrapper '__getslice__' of exceptions.AttributeError object>"
p19
sS'__getitem__'
p20
S"<method-wrapper '__getitem__' of exceptions.AttributeError object>"
p21
sS'__setstate__'
p22
S'<built-in method __setstate__ of exceptions.AttributeError object>'
p23
sS'args'
p24
S'("\'int\' object has no attribute \'json\'",)'
p25
sS'__reduce__'
p26
S'<built-in method __reduce__ of exceptions.AttributeError object>'
p27
sS'__str__'
p28
S"<method-wrapper '__str__' of exceptions.AttributeError object>"
p29
sS'__format__'
p30
S'<built-in method __format__ of exceptions.AttributeError object>'
p31
sS'__getattribute__'
p32
S"<method-wrapper '__getattribute__' of exceptions.AttributeError object>"
p33
sS'__class__'
p34
S"<type 'exceptions.AttributeError'>"
p35
sS'__unicode__'
p36
S'<built-in method __unicode__ of exceptions.AttributeError object>'
p37
sS'__delattr__'
p38
S"<method-wrapper '__delattr__' of exceptions.AttributeError object>"
p39
sS'__subclasshook__'
p40
S'<built-in method __subclasshook__ of type object>'
p41
sS'__repr__'
p42
S"<method-wrapper '__repr__' of exceptions.AttributeError object>"
p43
sS'__dict__'
p44
S'{}'
p45
sS'__sizeof__'
p46
S'<built-in method __sizeof__ of exceptions.AttributeError object>'
p47
sS'__doc__'
p48
S"'Attribute not found.'"
p49
sS'__init__'
p50
S"<method-wrapper '__init__' of exceptions.AttributeError object>"
p51
sS'__new__'
p52
S'<built-in method __new__ of type object>'
p53
ssS'evalue'
p54
S"'int' object has no attribute 'json'"
p55
sS'request'
p56
cgluon.html
XML_unpickle
p57
(S's\xe8<\x00\x00<div><table><tr><td style="font-weight:bold;vertical-align:top;">ajax</td><td style="vertical-align:top;">:</td><td><div>False</div></td></tr><tr><td style="font-weight:bold;vertical-align:top;">application</td><td style="vertical-align:top;">:</td><td><div>appsms</div></td></tr><tr><td style="font-weight:bold;vertical-align:top;">args</td><td style="vertical-align:top;">:</td><td><div><table></table></div></td></tr><tr><td style="font-weight:bold;vertical-align:top;">cid</td><td style="vertical-align:top;">:</td><td><div>None</div></td></tr><tr><td style="font-weight:bold;vertical-align:top;">client</td><td style="vertical-align:top;">:</td><td><div>191.113.77.212</div></td></tr><tr><td style="font-weight:bold;vertical-align:top;">controller</td><td style="vertical-align:top;">:</td><td><div>default</div></td></tr><tr><td style="font-weight:bold;vertical-align:top;">cookies</td><td style="vertical-align:top;">:</td><td><div><table></table></div></td></tr><tr><td style="font-weight:bold;vertical-align:top;">env</td><td style="vertical-align:top;">:</td><td><div><table><tr><td style="font-weight:bold;vertical-align:top;">CONTENT_LENGTH</td><td style="vertical-align:top;">:</td><td><div>21</div></td></tr><tr><td style="font-weight:bold;vertical-align:top;">CONTENT_TYPE</td><td style="vertical-align:top;">:</td><td><div>application/json</div></td></tr><tr><td style="font-weight:bold;vertical-align:top;">DOCUMENT_ROOT</td><td style="vertical-align:top;">:</td><td><div>/usr/share/nginx/html</div></td></tr><tr><td style="font-weight:bold;vertical-align:top;">HTTP_ACCEPT</td><td style="vertical-align:top;">:</td><td><div>*/*</div></td></tr><tr><td style="font-weight:bold;vertical-align:top;">HTTP_CONTENT_LENGTH</td><td style="vertical-align:top;">:</td><td><div>21</div></td></tr><tr><td style="font-weight:bold;vertical-align:top;">HTTP_CONTENT_TYPE</td><td style="vertical-align:top;">:</td><td><div>application/json</div></td></tr><tr><td style="font-weight:bold;vertical-align:top;">HTTP_HOST</td><td style="vertical-align:top;">:</td><td><div>fenavillarroel.ddns.net:8080</div></td></tr><tr><td style="font-weight:bold;vertical-align:top;">HTTP_USER_AGENT</td><td style="vertical-align:top;">:</td><td><div>curl/7.38.0</div></td></tr><tr><td style="font-weight:bold;vertical-align:top;">PATH_INFO</td><td style="vertical-align:top;">:</td><td><div>/appsms/default/api</div></td></tr><tr><td style="font-weight:bold;vertical-align:top;">QUERY_STRING</td><td style="vertical-align:top;">:</td><td><div></div></td></tr><tr><td style="font-weight:bold;vertical-align:top;">REMOTE_ADDR</td><td style="vertical-align:top;">:</td><td><div>191.113.77.212</div></td></tr><tr><td style="font-weight:bold;vertical-align:top;">REMOTE_PORT</td><td style="vertical-align:top;">:</td><td><div>50684</div></td></tr><tr><td style="font-weight:bold;vertical-align:top;">REQUEST_METHOD</td><td style="vertical-align:top;">:</td><td><div>POST</div></td></tr><tr><td style="font-weight:bold;vertical-align:top;">REQUEST_URI</td><td style="vertical-align:top;">:</td><td><div>/appsms/default/api</div></td></tr><tr><td style="font-weight:bold;vertical-align:top;">SERVER_NAME</td><td style="vertical-align:top;">:</td><td><div>fenavillarroel.ddns.net</div></td></tr><tr><td style="font-weight:bold;vertical-align:top;">SERVER_PORT</td><td style="vertical-align:top;">:</td><td><div>8080</div></td></tr><tr><td style="font-weight:bold;vertical-align:top;">SERVER_PROTOCOL</td><td style="vertical-align:top;">:</td><td><div>HTTP/1.1</div></td></tr><tr><td style="font-weight:bold;vertical-align:top;">SERVER_SOFTWARE</td><td style="vertical-align:top;">:</td><td><div>nginx/1.4.6</div></td></tr><tr><td style="font-weight:bold;vertical-align:top;">UWSGI_SCHEME</td><td style="vertical-align:top;">:</td><td><div>http</div></td></tr><tr><td style="font-weight:bold;vertical-align:top;">app_folders</td><td style="vertical-align:top;">:</td><td><div>set([&#x27;/home/web2py/applications/appsms/&#x27;])</div></td></tr><tr><td style="font-weight:bold;vertical-align:top;">applications_parent</td><td style="vertical-align:top;">:</td><td><div>/home/web2py</div></td></tr><tr><td style="font-weight:bold;vertical-align:top;">content_length</td><td style="vertical-align:top;">:</td><td><div>21</div></td></tr><tr><td style="font-weight:bold;vertical-align:top;">content_type</td><td style="vertical-align:top;">:</td><td><div>application/json</div></td></tr><tr><td style="font-weight:bold;vertical-align:top;">db_sessions</td><td style="vertical-align:top;">:</td><td><div>set([])</div></td></tr><tr><td style="font-weight:bold;vertical-align:top;">debugging</td><td style="vertical-align:top;">:</td><td><div>False</div></td></tr><tr><td style="font-weight:bold;vertical-align:top;">document_root</td><td style="vertical-align:top;">:</td><td><div>/usr/share/nginx/html</div></td></tr><tr><td style="font-weight:bold;vertical-align:top;">gluon_parent</td><td style="vertical-align:top;">:</td><td><div>/home/web2py</div></td></tr><tr><td style="font-weight:bold;vertical-align:top;">http_accept</td><td style="vertical-align:top;">:</td><td><div>*/*</div></td></tr><tr><td style="font-weight:bold;vertical-align:top;">http_content_length</td><td style="vertical-align:top;">:</td><td><div>21</div></td></tr><tr><td style="font-weight:bold;vertical-align:top;">http_content_type</td><td style="vertical-align:top;">:</td><td><div>application/json</div></td></tr><tr><td style="font-weight:bold;vertical-align:top;">http_host</td><td style="vertical-align:top;">:</td><td><div>fenavillarroel.ddns.net:8080</div></td></tr><tr><td style="font-weight:bold;vertical-align:top;">http_user_agent</td><td style="vertical-align:top;">:</td><td><div>curl/7.38.0</div></td></tr><tr><td style="font-weight:bold;vertical-align:top;">is_jython</td><td style="vertical-align:top;">:</td><td><div>False</div></td></tr><tr><td style="font-weight:bold;vertical-align:top;">is_pypy</td><td style="vertical-align:top;">:</td><td><div>False</div></td></tr><tr><td style="font-weight:bold;vertical-align:top;">is_source</td><td style="vertical-align:top;">:</td><td><div>True</div></td></tr><tr><td style="font-weight:bold;vertical-align:top;">local_hosts</td><td style="vertical-align:top;">:</td><td><div><table><tr><td><div>127.0.1.1</div></td></tr><tr><td><div>190.45.80.117</div></td></tr><tr><td><div>sms</div></td></tr><tr><td><div>::ffff:127.0.0.1</div></td></tr><tr><td><div>::1</div></td></tr><tr><td><div>fenavillarroel.ddns.net</div></td></tr><tr><td><div>127.0.0.1</div></td></tr></table></div></td></tr><tr><td style="font-weight:bold;vertical-align:top;">path_info</td><td style="vertical-align:top;">:</td><td><div>/appsms/default/api</div></td></tr><tr><td style="font-weight:bold;vertical-align:top;">query_string</td><td style="vertical-align:top;">:</td><td><div></div></td></tr><tr><td style="font-weight:bold;vertical-align:top;">remote_addr</td><td style="vertical-align:top;">:</td><td><div>191.113.77.212</div></td></tr><tr><td style="font-weight:bold;vertical-align:top;">remote_port</td><td style="vertical-align:top;">:</td><td><div>50684</div></td></tr><tr><td style="font-weight:bold;vertical-align:top;">request_method</td><td style="vertical-align:top;">:</td><td><div>POST</div></td></tr><tr><td style="font-weight:bold;vertical-align:top;">request_uri</td><td style="vertical-align:top;">:</td><td><div>/appsms/default/api</div></td></tr><tr><td style="font-weight:bold;vertical-align:top;">server_name</td><td style="vertical-align:top;">:</td><td><div>fenavillarroel.ddns.net</div></td></tr><tr><td style="font-weight:bold;vertical-align:top;">server_port</td><td style="vertical-align:top;">:</td><td><div>8080</div></td></tr><tr><td style="font-weight:bold;vertical-align:top;">server_protocol</td><td style="vertical-align:top;">:</td><td><div>HTTP/1.1</div></td></tr><tr><td style="font-weight:bold;vertical-align:top;">server_software</td><td style="vertical-align:top;">:</td><td><div>nginx/1.4.6</div></td></tr><tr><td style="font-weight:bold;vertical-align:top;">uwsgi.node</td><td style="vertical-align:top;">:</td><td><div>sms</div></td></tr><tr><td style="font-weight:bold;vertical-align:top;">uwsgi.version</td><td style="vertical-align:top;">:</td><td><div>2.0.11.1</div></td></tr><tr><td style="font-weight:bold;vertical-align:top;">uwsgi_node</td><td style="vertical-align:top;">:</td><td><div>sms</div></td></tr><tr><td style="font-weight:bold;vertical-align:top;">uwsgi_scheme</td><td style="vertical-align:top;">:</td><td><div>http</div></td></tr><tr><td style="font-weight:bold;vertical-align:top;">uwsgi_version</td><td style="vertical-align:top;">:</td><td><div>2.0.11.1</div></td></tr><tr><td style="font-weight:bold;vertical-align:top;">web2py_original_uri</td><td style="vertical-align:top;">:</td><td><div>/appsms/default/api</div></td></tr><tr><td style="font-weight:bold;vertical-align:top;">web2py_path</td><td style="vertical-align:top;">:</td><td><div>/home/web2py</div></td></tr><tr><td style="font-weight:bold;vertical-align:top;">web2py_version</td><td style="vertical-align:top;">:</td><td><div>2.12.3-stable+timestamp.2015.08.19.00.18.03</div></td></tr><tr><td style="font-weight:bold;vertical-align:top;">wsgi.errors</td><td style="vertical-align:top;">:</td><td><div>&lt;open file &#x27;wsgi_errors&#x27;, mode &#x27;w&#x27; at 0x7f18a64ae4b0&gt;</div></td></tr><tr><td style="font-weight:bold;vertical-align:top;">wsgi.file_wrapper</td><td style="vertical-align:top;">:</td><td><div>&lt;built-in function uwsgi_sendfile&gt;</div></td></tr><tr><td style="font-weight:bold;vertical-align:top;">wsgi.input</td><td style="vertical-align:top;">:</td><td><div>&lt;uwsgi._Input object at 0x7f18ab462588&gt;</div></td></tr><tr><td style="font-weight:bold;vertical-align:top;">wsgi.multiprocess</td><td style="vertical-align:top;">:</td><td><div>True</div></td></tr><tr><td style="font-weight:bold;vertical-align:top;">wsgi.multithread</td><td style="vertical-align:top;">:</td><td><div>False</div></td></tr><tr><td style="font-weight:bold;vertical-align:top;">wsgi.run_once</td><td style="vertical-align:top;">:</td><td><div>False</div></td></tr><tr><td style="font-weight:bold;vertical-align:top;">wsgi.url_scheme</td><td style="vertical-align:top;">:</td><td><div>http</div></td></tr><tr><td style="font-weight:bold;vertical-align:top;">wsgi.version</td><td style="vertical-align:top;">:</td><td><div><table><tr><td><div>1</div></td></tr><tr><td><div>0</div></td></tr></table></div></td></tr><tr><td style="font-weight:bold;vertical-align:top;">wsgi_errors</td><td style="vertical-align:top;">:</td><td><div>&lt;open file &#x27;wsgi_errors&#x27;, mode &#x27;w&#x27; at 0x7f18a64ae4b0&gt;</div></td></tr><tr><td style="font-weight:bold;vertical-align:top;">wsgi_file_wrapper</td><td style="vertical-align:top;">:</td><td><div>&lt;built-in function uwsgi_sendfile&gt;</div></td></tr><tr><td style="font-weight:bold;vertical-align:top;">wsgi_input</td><td style="vertical-align:top;">:</td><td><div>&lt;uwsgi._Input object at 0x7f18ab462588&gt;</div></td></tr><tr><td style="font-weight:bold;vertical-align:top;">wsgi_multiprocess</td><td style="vertical-align:top;">:</td><td><div>True</div></td></tr><tr><td style="font-weight:bold;vertical-align:top;">wsgi_multithread</td><td style="vertical-align:top;">:</td><td><div>False</div></td></tr><tr><td style="font-weight:bold;vertical-align:top;">wsgi_run_once</td><td style="vertical-align:top;">:</td><td><div>False</div></td></tr><tr><td style="font-weight:bold;vertical-align:top;">wsgi_url_scheme</td><td style="vertical-align:top;">:</td><td><div>http</div></td></tr><tr><td style="font-weight:bold;vertical-align:top;">wsgi_version</td><td style="vertical-align:top;">:</td><td><div><table><tr><td><div>1</div></td></tr><tr><td><div>0</div></td></tr></table></div></td></tr></table></div></td></tr><tr><td style="font-weight:bold;vertical-align:top;">extension</td><td style="vertical-align:top;">:</td><td><div>html</div></td></tr><tr><td style="font-weight:bold;vertical-align:top;">folder</td><td style="vertical-align:top;">:</td><td><div>/home/web2py/applications/appsms/</div></td></tr><tr><td style="font-weight:bold;vertical-align:top;">function</td><td style="vertical-align:top;">:</td><td><div>api</div></td></tr><tr><td style="font-weight:bold;vertical-align:top;">global_settings</td><td style="vertical-align:top;">:</td><td><div><table><tr><td style="font-weight:bold;vertical-align:top;">app_folders</td><td style="vertical-align:top;">:</td><td><div>set([&#x27;/home/web2py/applications/appsms/&#x27;])</div></td></tr><tr><td style="font-weight:bold;vertical-align:top;">applications_parent</td><td style="vertical-align:top;">:</td><td><div>/home/web2py</div></td></tr><tr><td style="font-weight:bold;vertical-align:top;">db_sessions</td><td style="vertical-align:top;">:</td><td><div>set([])</div></td></tr><tr><td style="font-weight:bold;vertical-align:top;">debugging</td><td style="vertical-align:top;">:</td><td><div>False</div></td></tr><tr><td style="font-weight:bold;vertical-align:top;">gluon_parent</td><td style="vertical-align:top;">:</td><td><div>/home/web2py</div></td></tr><tr><td style="font-weight:bold;vertical-align:top;">is_jython</td><td style="vertical-align:top;">:</td><td><div>False</div></td></tr><tr><td style="font-weight:bold;vertical-align:top;">is_pypy</td><td style="vertical-align:top;">:</td><td><div>False</div></td></tr><tr><td style="font-weight:bold;vertical-align:top;">is_source</td><td style="vertical-align:top;">:</td><td><div>True</div></td></tr><tr><td style="font-weight:bold;vertical-align:top;">local_hosts</td><td style="vertical-align:top;">:</td><td><div><table><tr><td><div>127.0.1.1</div></td></tr><tr><td><div>190.45.80.117</div></td></tr><tr><td><div>sms</div></td></tr><tr><td><div>::ffff:127.0.0.1</div></td></tr><tr><td><div>::1</div></td></tr><tr><td><div>fenavillarroel.ddns.net</div></td></tr><tr><td><div>127.0.0.1</div></td></tr></table></div></td></tr><tr><td style="font-weight:bold;vertical-align:top;">web2py_version</td><td style="vertical-align:top;">:</td><td><div>2.12.3-stable+timestamp.2015.08.19.00.18.03</div></td></tr></table></div></td></tr><tr><td style="font-weight:bold;vertical-align:top;">is_https</td><td style="vertical-align:top;">:</td><td><div>False</div></td></tr><tr><td style="font-weight:bold;vertical-align:top;">is_local</td><td style="vertical-align:top;">:</td><td><div>False</div></td></tr><tr><td style="font-weight:bold;vertical-align:top;">is_restful</td><td style="vertical-align:top;">:</td><td><div>True</div></td></tr><tr><td style="font-weight:bold;vertical-align:top;">is_sheduler</td><td style="vertical-align:top;">:</td><td><div>None</div></td></tr><tr><td style="font-weight:bold;vertical-align:top;">is_shell</td><td style="vertical-align:top;">:</td><td><div>None</div></td></tr><tr><td style="font-weight:bold;vertical-align:top;">now</td><td style="vertical-align:top;">:</td><td><div>datetime.datetime(2016, 5, 26, 0, 26, 50, 190025)</div></td></tr><tr><td style="font-weight:bold;vertical-align:top;">url</td><td style="vertical-align:top;">:</td><td><div>/appsms/default/api</div></td></tr><tr><td style="font-weight:bold;vertical-align:top;">utcnow</td><td style="vertical-align:top;">:</td><td><div>datetime.datetime(2016, 5, 26, 3, 26, 50, 190090)</div></td></tr><tr><td style="font-weight:bold;vertical-align:top;">wsgi</td><td style="vertical-align:top;">:</td><td><div>&lt;gluon.main.LazyWSGI object at 0x7f18a24c5210&gt;</div></td></tr></table></div>'
tRp58
sS'frames'
p59
(lp60
(dp61
S'file'
p62
S'/home/web2py/gluon/restricted.py'
p63
sS'dump'
p64
(dp65
S'environment'
p66
S"{'A': <class 'gluon.html.A'>, 'ANY_OF': <class 'gluon.validators.ANY_OF'>, 'ASSIGNJS': <function ASSIGNJS>, 'AppConfig': <function AppConfig>, 'Auth': <class 'gluon.tools.Auth'>, 'B': <class 'gluon.html.B'>, 'BEAUTIFY': <class 'gluon.html.BEAUTIFY'>, 'BODY': <class 'gluon.html.BODY'>, 'BR': <class 'gluon.html.BR'>, 'BUTTON': <class 'gluon.html.BUTTON'>, ...}"
p67
sS'ccode'
p68
S'<code object <module> at 0x7f18a24253b0, file "/...ications/appsms/controllers/default.py", line 10>'
p69
ssS'lnum'
p70
I227
sS'lines'
p71
(dp72
I224
S'            ccode = code'
p73
sI225
S'        else:'
p74
sI226
S'            ccode = compile2(code, layer)'
p75
sI227
S'        exec ccode in environment'
p76
sI228
S'    except HTTP:'
p77
sI229
S'        raise'
p78
sI230
S'    except RestrictedError:'
p79
sI231
S'        # do not encapsulate (obfuscate) the original RestrictedError'
p80
sI222
S'    try:'
p81
sI223
S'        if isinstance(code, types.CodeType):'
p82
ssS'call'
p83
S"(code='# -*- coding: utf-8 -*-\\n# this file is released ...locals() \\n\\n\\nresponse._vars=response._caller(api)\\n', environment={'A': <class 'gluon.html.A'>, 'ANY_OF': <class 'gluon.validators.ANY_OF'>, 'ASSIGNJS': <function ASSIGNJS>, 'AppConfig': <function AppConfig>, 'Auth': <class 'gluon.tools.Auth'>, 'B': <class 'gluon.html.B'>, 'BEAUTIFY': <class 'gluon.html.BEAUTIFY'>, 'BODY': <class 'gluon.html.BODY'>, 'BR': <class 'gluon.html.BR'>, 'BUTTON': <class 'gluon.html.BUTTON'>, ...}, layer='/home/web2py/applications/appsms/controllers/default.py')"
p84
sS'func'
p85
S'restricted'
p86
sa(dp87
g62
S'/home/web2py/applications/appsms/controllers/default.py'
p88
sg64
(dp89
sg70
I333
sg71
(dp90
I322
S'        #execute = os.popen(cmd).read()'
p91
sI323
S'        #app.logger.debug(execute)'
p92
sI324
S"        #sms_id = execute.split('\\n')[0]"
p93
sI325
S''
sI326
S"        #if not tablename == 'person':"
p94
sI327
S'        #    raise HTTP(400)'
p95
sI328
S'        #return number.json'
p96
sI329
S''
sI330
S'    return locals()'
p97
sI331
S''
ssg83
S'()'
p98
sg85
S'<module>'
p99
sa(dp100
g62
S'/home/web2py/gluon/globals.py'
p101
sg64
(dp102
S'self'
p103
S'undefined'
p104
sS'f'
S'<function api>'
p105
ssg70
I412
sg71
(dp106
I416
S"        self.generic_patterns = ['*']"
p107
sI407
S"        self.flash = ''            # used by the default view layout"
p108
sI408
S'        self.meta = Storage()      # used by web2py_ajax.html'
p109
sI409
S'        self.menu = []             # used by the default view layout'
p110
sI410
S'        self.files = []            # used by web2py_ajax.html'
p111
sI411
S'        self._vars = None'
p112
sI412
S'        self._caller = lambda f: f()'
p113
sI413
S'        self._view_environment = None'
p114
sI414
S'        self._custom_commit = None'
p115
sI415
S'        self._custom_rollback = None'
p116
ssg83
S'(f=<function api>)'
p117
sg85
S'<lambda>'
p118
sa(dp119
g62
S'/home/web2py/gluon/globals.py'
p120
sg64
(dp121
S'rest_action'
p122
S'<function POST>'
p123
sS'_self'
p124
S"<Storage {'_vars': <Storage {u'number': 99449180..., 'folder': '/home/web2py/applications/appsms/'}>"
p125
sS'_self.args'
p126
S'[]'
p127
sS'builtingetattr'
p128
S'<built-in function getattr>'
p129
ssg70
I378
sg71
(dp130
I373
S'                rest_action = _action().get(method, None)'
p131
sI374
S'                if not (rest_action and method == method.upper()'
p132
sI375
S'                        and callable(rest_action)):'
p133
sI376
S'                    raise HTTP(405, "method not allowed")'
p134
sI377
S'                try:'
p135
sI378
S"                    return rest_action(*_self.args, **getattr(_self, 'vars', {}))"
p136
sI379
S'                except TypeError, e:'
p137
sI380
S'                    exc_type, exc_value, exc_traceback = sys.exc_info()'
p138
sI381
S'                    if len(traceback.extract_tb(exc_traceback)) == 1:'
p139
sI382
S'                        raise HTTP(400, "invalid arguments")'
p140
ssg83
S"(_action=<function api>, _self=<Storage {'_vars': <Storage {u'number': 99449180..., 'folder': '/home/web2py/applications/appsms/'}>, *a=(), **b={})"
p141
sg85
S'f'
sa(dp142
g62
S'/home/web2py/applications/appsms/controllers/default.py'
p143
sg64
(dp144
S'number.json'
p145
g104
sS'number'
p146
S'994491803'
p147
ssg70
I304
sg71
(dp148
I299
S''
sI300
S'        print "hola"'
p149
sI301
S"        #bin_sendsms='/usr/local/bin/send_my_sms'"
p150
sI302
S'        #ext = request.form["text"]'
p151
sI303
S'        number = request.vars.number'
p152
sI304
S'        return number.json'
p153
sI305
S'        #username = request.form["username"]'
p154
sI306
S'        #password = request.form["password"]'
p155
sI307
S'        #id_sms = request.form["id"]'
p156
sI308
S"        #if username != 'fenvillarroel' or password !='abc123jU':"
p157
ssg83
S"(*args=(), **vars={u'number': 994491803})"
p158
sg85
S'POST'
p159
sasS'pyver'
p160
S'Python 2.7.6: /usr/local/bin/uwsgi (prefix: /usr)'
p161
sS'session'
p162
g57
(S's\x1a\x00\x00\x00<div><table></table></div>'
tRp163
sS'etype'
p164
S"<type 'exceptions.AttributeError'>"
p165
sS'date'
p166
S'Thu May 26 00:26:50 2016'
p167
sS'response'
p168
g57
(S's\xee\x1f\x00\x00<div><table><tr><td style="font-weight:bold;vertical-align:top;">body</td><td style="vertical-align:top;">:</td><td><div>&lt;cStringIO.StringO object at 0x7f18a8a69260&gt;</div></td></tr><tr><td style="font-weight:bold;vertical-align:top;">cookies</td><td style="vertical-align:top;">:</td><td><div><table><tr><td style="font-weight:bold;vertical-align:top;">session_id_appsms</td><td style="vertical-align:top;">:</td><td><div>191.113.77.212-32505e8a-0267-4045-ba08-b376561a2f2a<table><tr><td style="font-weight:bold;vertical-align:top;">comment</td><td style="vertical-align:top;">:</td><td><div></div></td></tr><tr><td style="font-weight:bold;vertical-align:top;">domain</td><td style="vertical-align:top;">:</td><td><div></div></td></tr><tr><td style="font-weight:bold;vertical-align:top;">expires</td><td style="vertical-align:top;">:</td><td><div></div></td></tr><tr><td style="font-weight:bold;vertical-align:top;">httponly</td><td style="vertical-align:top;">:</td><td><div></div></td></tr><tr><td style="font-weight:bold;vertical-align:top;">max-age</td><td style="vertical-align:top;">:</td><td><div></div></td></tr><tr><td style="font-weight:bold;vertical-align:top;">path</td><td style="vertical-align:top;">:</td><td><div>/</div></td></tr><tr><td style="font-weight:bold;vertical-align:top;">secure</td><td style="vertical-align:top;">:</td><td><div></div></td></tr><tr><td style="font-weight:bold;vertical-align:top;">version</td><td style="vertical-align:top;">:</td><td><div></div></td></tr></table></div></td></tr></table></div></td></tr><tr><td style="font-weight:bold;vertical-align:top;">delimiters</td><td style="vertical-align:top;">:</td><td><div><table><tr><td><div>{{</div></td></tr><tr><td><div>}}</div></td></tr></table></div></td></tr><tr><td style="font-weight:bold;vertical-align:top;">files</td><td style="vertical-align:top;">:</td><td><div><table></table></div></td></tr><tr><td style="font-weight:bold;vertical-align:top;">flash</td><td style="vertical-align:top;">:</td><td><div></div></td></tr><tr><td style="font-weight:bold;vertical-align:top;">form_label_separator</td><td style="vertical-align:top;">:</td><td><div></div></td></tr><tr><td style="font-weight:bold;vertical-align:top;">formstyle</td><td style="vertical-align:top;">:</td><td><div>bootstrap3_inline</div></td></tr><tr><td style="font-weight:bold;vertical-align:top;">generic_patterns</td><td style="vertical-align:top;">:</td><td><div><table></table></div></td></tr><tr><td style="font-weight:bold;vertical-align:top;">google_analytics_id</td><td style="vertical-align:top;">:</td><td><div>None</div></td></tr><tr><td style="font-weight:bold;vertical-align:top;">headers</td><td style="vertical-align:top;">:</td><td><div><table><tr><td style="font-weight:bold;vertical-align:top;">X-Powered-By</td><td style="vertical-align:top;">:</td><td><div>web2py</div></td></tr></table></div></td></tr><tr><td style="font-weight:bold;vertical-align:top;">menu</td><td style="vertical-align:top;">:</td><td><div><table><tr><td><div><table><tr><td><div>Home</div></td></tr><tr><td><div>False</div></td></tr><tr><td><div>/</div></td></tr><tr><td><div><table></table></div></td></tr></table></div></td></tr><tr><td><div><table><tr><td><div>Logs</div></td></tr><tr><td><div>False</div></td></tr><tr><td><div>/log</div></td></tr><tr><td><div><table></table></div></td></tr></table></div></td></tr><tr><td><div><table><tr><td><div>Outgoing</div></td></tr><tr><td><div>False</div></td></tr><tr><td><div>/outgoing</div></td></tr><tr><td><div><table></table></div></td></tr></table></div></td></tr><tr><td><div><table><tr><td><div>Recibidos</div></td></tr><tr><td><div>False</div></td></tr><tr><td><div>/recibidos</div></td></tr><tr><td><div><table></table></div></td></tr></table></div></td></tr><tr><td><div><table><tr><td><div>Dispositivos</div></td></tr><tr><td><div>False</div></td></tr><tr><td><div>/dispositivos</div></td></tr><tr><td><div><table></table></div></td></tr></table></div></td></tr><tr><td><div><table><tr><td><div>Colas</div></td></tr><tr><td><div>False</div></td></tr><tr><td><div>/colas</div></td></tr><tr><td><div><table></table></div></td></tr></table></div></td></tr><tr><td><div><table><tr><td><div>Reload SMS Tools</div></td></tr><tr><td><div>False</div></td></tr><tr><td><div>/reload</div></td></tr><tr><td><div><table></table></div></td></tr></table></div></td></tr></table></div></td></tr><tr><td style="font-weight:bold;vertical-align:top;">meta</td><td style="vertical-align:top;">:</td><td><div><table><tr><td style="font-weight:bold;vertical-align:top;">author</td><td style="vertical-align:top;">:</td><td><div>Your Name &lt;you@example.com&gt;</div></td></tr><tr><td style="font-weight:bold;vertical-align:top;">description</td><td style="vertical-align:top;">:</td><td><div>a cool new app</div></td></tr><tr><td style="font-weight:bold;vertical-align:top;">generator</td><td style="vertical-align:top;">:</td><td><div>Web2py Web Framework</div></td></tr><tr><td style="font-weight:bold;vertical-align:top;">keywords</td><td style="vertical-align:top;">:</td><td><div>web2py, python, framework</div></td></tr></table></div></td></tr><tr><td style="font-weight:bold;vertical-align:top;">models_to_run</td><td style="vertical-align:top;">:</td><td><div><table><tr><td><div>^\\w+\\.py$</div></td></tr><tr><td><div>^default/\\w+\\.py$</div></td></tr><tr><td><div>^default/api/\\w+\\.py$</div></td></tr></table></div></td></tr><tr><td style="font-weight:bold;vertical-align:top;">postprocessing</td><td style="vertical-align:top;">:</td><td><div><table></table></div></td></tr><tr><td style="font-weight:bold;vertical-align:top;">session_client</td><td style="vertical-align:top;">:</td><td><div>191.113.77.212</div></td></tr><tr><td style="font-weight:bold;vertical-align:top;">session_cookie_compression_level</td><td style="vertical-align:top;">:</td><td><div>None</div></td></tr><tr><td style="font-weight:bold;vertical-align:top;">session_cookie_expires</td><td style="vertical-align:top;">:</td><td><div>None</div></td></tr><tr><td style="font-weight:bold;vertical-align:top;">session_cookie_key</td><td style="vertical-align:top;">:</td><td><div>None</div></td></tr><tr><td style="font-weight:bold;vertical-align:top;">session_data_name</td><td style="vertical-align:top;">:</td><td><div>session_data_appsms</div></td></tr><tr><td style="font-weight:bold;vertical-align:top;">session_file</td><td style="vertical-align:top;">:</td><td><div>None</div></td></tr><tr><td style="font-weight:bold;vertical-align:top;">session_filename</td><td style="vertical-align:top;">:</td><td><div>/home/web2py/applications/appsms/sessions/191.113.77.212-32505e8a-0267-4045-ba08-b376561a2f2a</div></td></tr><tr><td style="font-weight:bold;vertical-align:top;">session_hash</td><td style="vertical-align:top;">:</td><td><div>c0762cbf4baf7f9af97c051e7fcb8083</div></td></tr><tr><td style="font-weight:bold;vertical-align:top;">session_id</td><td style="vertical-align:top;">:</td><td><div>191.113.77.212-32505e8a-0267-4045-ba08-b376561a2f2a</div></td></tr><tr><td style="font-weight:bold;vertical-align:top;">session_id_name</td><td style="vertical-align:top;">:</td><td><div>session_id_appsms</div></td></tr><tr><td style="font-weight:bold;vertical-align:top;">session_masterapp</td><td style="vertical-align:top;">:</td><td><div>appsms</div></td></tr><tr><td style="font-weight:bold;vertical-align:top;">session_new</td><td style="vertical-align:top;">:</td><td><div>True</div></td></tr><tr><td style="font-weight:bold;vertical-align:top;">session_storage_type</td><td style="vertical-align:top;">:</td><td><div>file</div></td></tr><tr><td style="font-weight:bold;vertical-align:top;">status</td><td style="vertical-align:top;">:</td><td><div>200</div></td></tr><tr><td style="font-weight:bold;vertical-align:top;">subtitle</td><td style="vertical-align:top;">:</td><td><div></div></td></tr><tr><td style="font-weight:bold;vertical-align:top;">title</td><td style="vertical-align:top;">:</td><td><div>Appsms</div></td></tr><tr><td style="font-weight:bold;vertical-align:top;">view</td><td style="vertical-align:top;">:</td><td><div>generic.json</div></td></tr></table></div>'
tRp169
sS'locals'
p170
(dp171
g24
S'()'
p172
sS'number'
p173
S'994491803'
p174
sS'vars'
p175
S"{u'number': 994491803}"
p176
sssS'traceback'
p177
S'Traceback (most recent call last):\n  File "/home/web2py/gluon/restricted.py", line 227, in restricted\n    exec ccode in environment\n  File "/home/web2py/applications/appsms/controllers/default.py", line 333, in <module>\n  File "/home/web2py/gluon/globals.py", line 412, in <lambda>\n    self._caller = lambda f: f()\n  File "/home/web2py/gluon/globals.py", line 378, in f\n    return rest_action(*_self.args, **getattr(_self, \'vars\', {}))\n  File "/home/web2py/applications/appsms/controllers/default.py", line 304, in POST\n    return number.json\nAttributeError: \'int\' object has no attribute \'json\'\n'
p178
s.